; Function Attrs: nounwind uwtable
define internal noundef zeroext i1 @DISKAUDIO_OpenDevice(ptr noundef captures(none) initializes((200, 208)) %0) #1 {
  %2 = getelementptr inbounds nuw i8, ptr %0, i64 148
  %3 = load i8, ptr %2, align 4, !range !3, !noundef !4
  %4 = trunc nuw i8 %3 to i1
  %5 = select i1 %4, ptr @.str.9, ptr @.str.10
  %6 = tail call ptr @SDL_GetHint_REAL(ptr noundef nonnull %5) #7
  %.not.i = icmp eq ptr %6, null
  %7 = select i1 %4, ptr @.str.11, ptr @.str.12
  %spec.select.i = select i1 %.not.i, ptr %7, ptr %6
  %8 = tail call noalias dereferenceable_or_null(24) ptr @SDL_calloc_REAL(i64 noundef 1, i64 noundef 24) #8
  %9 = getelementptr inbounds nuw i8, ptr %0, i64 200
  store ptr %8, ptr %9, align 8
  %.not = icmp eq ptr %8, null
  br i1 %.not, label %65, label %10

10:                                               ; preds = %1
  %11 = getelementptr inbounds nuw i8, ptr %0, i64 132
  %12 = load i32, ptr %11, align 4
  %13 = mul nsw i32 %12, 1000
  %14 = getelementptr inbounds nuw i8, ptr %0, i64 96
  %15 = getelementptr inbounds nuw i8, ptr %0, i64 104
  %16 = load i32, ptr %15, align 8
  %17 = sdiv i32 %13, %16
  %18 = getelementptr inbounds nuw i8, ptr %8, i64 8
  store i32 %17, ptr %18, align 8
  %19 = tail call ptr @SDL_GetHint_REAL(ptr noundef nonnull @.str.2) #7
  %.not33 = icmp eq ptr %19, null
  br i1 %.not33, label %33, label %20

20:                                               ; preds = %10
  %21 = tail call double @SDL_atof_REAL(ptr noundef nonnull %19) #7
  %22 = fcmp ult double %21, 0.000000e+00
  br i1 %22, label %33, label %23

23:                                               ; preds = %20
  %24 = load ptr, ptr %9, align 8
  %25 = getelementptr inbounds nuw i8, ptr %24, i64 8
  %26 = load i32, ptr %25, align 8
  %27 = uitofp i32 %26 to double
  %28 = fmul double %21, %27
  %29 = tail call double @SDL_round_REAL(double noundef %28) #7
  %30 = fptoui double %29 to i32
  %31 = load ptr, ptr %9, align 8
  %32 = getelementptr inbounds nuw i8, ptr %31, i64 8
  store i32 %30, ptr %32, align 8
  br label %33

33:                                               ; preds = %20, %23, %10
  %34 = select i1 %4, ptr @.str.3, ptr @.str.4
  %35 = tail call ptr @SDL_IOFromFile_REAL(ptr noundef nonnull %spec.select.i, ptr noundef nonnull %34) #7
  %36 = load ptr, ptr %9, align 8
  store ptr %35, ptr %36, align 8
  %37 = load ptr, ptr %9, align 8
  %38 = load ptr, ptr %37, align 8
  %.not34 = icmp eq ptr %38, null
  br i1 %.not34, label %65, label %39

39:                                               ; preds = %33
  br i1 %4, label %56, label %40

40:                                               ; preds = %39
  %41 = getelementptr inbounds nuw i8, ptr %0, i64 108
  %42 = load i32, ptr %41, align 4
  %43 = sext i32 %42 to i64
  %44 = tail call noalias ptr @SDL_malloc_REAL(i64 noundef %43) #7
  %45 = load ptr, ptr %9, align 8
  %46 = getelementptr inbounds nuw i8, ptr %45, i64 16
  store ptr %44, ptr %46, align 8
  %47 = load ptr, ptr %9, align 8
  %48 = getelementptr inbounds nuw i8, ptr %47, i64 16
  %49 = load ptr, ptr %48, align 8
  %.not35 = icmp eq ptr %49, null
  br i1 %.not35, label %65, label %50

50:                                               ; preds = %40
  %51 = getelementptr inbounds nuw i8, ptr %0, i64 136
  %52 = load i32, ptr %51, align 8
  %53 = trunc i32 %52 to i8
  %54 = load i32, ptr %41, align 4
  %55 = sext i32 %54 to i64
  tail call void @llvm.memset.p0.i64(ptr nonnull align 1 %49, i8 %53, i64 %55, i1 false)
  br label %56

56:                                               ; preds = %50, %39
  %57 = phi ptr [ @.str.8, %50 ], [ @.str.7, %39 ]
  tail call void (i32, ptr, ...) @SDL_LogCritical_REAL(i32 noundef 4, ptr noundef nonnull @.str.5) #7
  %58 = load i32, ptr %14, align 8
  %59 = tail call ptr @SDL_GetAudioFormatName_REAL(i32 noundef %58) #7
  %60 = tail call i32 @SDL_strncmp_REAL(ptr noundef %59, ptr noundef nonnull @.str.13, i64 noundef 10) #7
  %61 = icmp eq i32 %60, 0
  %spec.select.idx.i = select i1 %61, i64 10, i64 0
  %spec.select.i36 = getelementptr inbounds nuw i8, ptr %59, i64 %spec.select.idx.i
  %62 = getelementptr inbounds nuw i8, ptr %0, i64 100
  %63 = load i32, ptr %62, align 4
  %64 = load i32, ptr %15, align 8
  tail call void (i32, ptr, ...) @SDL_LogCritical_REAL(i32 noundef 4, ptr noundef nonnull @.str.6, ptr noundef nonnull %57, ptr noundef nonnull %spec.select.i, ptr noundef %spec.select.i36, i32 noundef %63, i32 noundef %64) #7
  br label %65

65:                                               ; preds = %56, %33, %40, %1
  %.0 = phi i1 [ false, %1 ], [ true, %56 ], [ false, %33 ], [ false, %40 ]
  ret i1 %.0
}